target datalayout = "e-m:e-p270:32:32-p271:32:32-p272:64:64-i64:64-i128:128-f80:128-n8:16:32:64-S128"
target triple = "x86_64-pc-linux-gnu"

%struct.PQExpBufferData = type { ptr, i64, i64 }

@.str.248 = private unnamed_addr constant [15 x i8] c"\\if expression\00", align 1

; Function Attrs: nounwind uwtable
define internal void @save_query_text_state(ptr noundef %0, ptr noundef %1, ptr noundef %2) #0 {
  %4 = alloca ptr, align 8
  %5 = alloca ptr, align 8
  %6 = alloca ptr, align 8
  store ptr %0, ptr %4, align 8
  store ptr %1, ptr %5, align 8
  store ptr %2, ptr %6, align 8
  %7 = load ptr, ptr %6, align 8
  %8 = icmp ne ptr %7, null
  br i1 %8, label %9, label %15

9:                                                ; preds = %3
  %10 = load ptr, ptr %5, align 8
  %11 = load ptr, ptr %6, align 8
  %12 = getelementptr inbounds nuw %struct.PQExpBufferData, ptr %11, i32 0, i32 1
  %13 = load i64, ptr %12, align 8
  %14 = trunc i64 %13 to i32
  call void @conditional_stack_set_query_len(ptr noundef %10, i32 noundef %14)
  br label %15

15:                                               ; preds = %9, %3
  %16 = load ptr, ptr %5, align 8
  %17 = load ptr, ptr %4, align 8
  %18 = call i32 @psql_scan_get_paren_depth(ptr noundef %17)
  call void @conditional_stack_set_paren_depth(ptr noundef %16, i32 noundef %18)
  ret void
}

; Function Attrs: nounwind uwtable
define internal i32 @exec_command_if(ptr noundef %0, ptr noundef %1, ptr noundef %2) #0 {
  %4 = alloca ptr, align 8
  %5 = alloca ptr, align 8
  %6 = alloca ptr, align 8
  store ptr %0, ptr %4, align 8
  store ptr %1, ptr %5, align 8
  store ptr %2, ptr %6, align 8
  %7 = load ptr, ptr %5, align 8
  %8 = call zeroext i1 @conditional_active(ptr noundef %7)
  br i1 %8, label %9, label %20

9:                                                ; preds = %3
  %10 = load ptr, ptr %5, align 8
  call void @conditional_stack_push(ptr noundef %10, i32 noundef 1)
  %11 = load ptr, ptr %4, align 8
  %12 = load ptr, ptr %5, align 8
  %13 = load ptr, ptr %6, align 8
  call void @save_query_text_state(ptr noundef %11, ptr noundef %12, ptr noundef %13)
  %14 = load ptr, ptr %4, align 8
  %15 = call zeroext i1 @is_true_boolean_expression(ptr noundef %14, ptr noundef @.str.248)
  br i1 %15, label %19, label %16

16:                                               ; preds = %9
  %17 = load ptr, ptr %5, align 8
  %18 = call zeroext i1 @conditional_stack_poke(ptr noundef %17, i32 noundef 2)
  br label %19

19:                                               ; preds = %16, %9
  br label %26

20:                                               ; preds = %3
  %21 = load ptr, ptr %5, align 8
  call void @conditional_stack_push(ptr noundef %21, i32 noundef 3)
  %22 = load ptr, ptr %4, align 8
  %23 = load ptr, ptr %5, align 8
  %24 = load ptr, ptr %6, align 8
  call void @save_query_text_state(ptr noundef %22, ptr noundef %23, ptr noundef %24)
  %25 = load ptr, ptr %4, align 8
  call void @ignore_boolean_expression(ptr noundef %25)
  br label %26

26:                                               ; preds = %20, %19
  ret i32 2
}