; Function Attrs: nounwind uwtable
define internal fastcc void @exec_command_if(ptr noundef %0, ptr noundef %1, ptr noundef readonly captures(address_is_null) %2) unnamed_addr #0 {
  %4 = tail call zeroext i1 @conditional_active(ptr noundef %1) #16
  %.not.i = icmp eq ptr %2, null
  br i1 %4, label %5, label %14

5:                                                ; preds = %3
  tail call void @conditional_stack_push(ptr noundef %1, i32 noundef 1) #16
  br i1 %.not.i, label %save_query_text_state.exit, label %6

6:                                                ; preds = %5
  %7 = getelementptr inbounds nuw i8, ptr %2, i64 8
  %8 = load i64, ptr %7, align 8
  %9 = trunc i64 %8 to i32
  tail call void @conditional_stack_set_query_len(ptr noundef %1, i32 noundef %9) #16
  br label %save_query_text_state.exit

save_query_text_state.exit:                       ; preds = %5, %6
  %10 = tail call i32 @psql_scan_get_paren_depth(ptr noundef %0) #16
  tail call void @conditional_stack_set_paren_depth(ptr noundef %1, i32 noundef %10) #16
  %11 = tail call fastcc zeroext i1 @is_true_boolean_expression(ptr noundef %0, ptr noundef nonnull @.str.248)
  br i1 %11, label %20, label %12

12:                                               ; preds = %save_query_text_state.exit
  %13 = tail call zeroext i1 @conditional_stack_poke(ptr noundef %1, i32 noundef 2) #16
  br label %20

14:                                               ; preds = %3
  tail call void @conditional_stack_push(ptr noundef %1, i32 noundef 3) #16
  br i1 %.not.i, label %save_query_text_state.exit13, label %15

15:                                               ; preds = %14
  %16 = getelementptr inbounds nuw i8, ptr %2, i64 8
  %17 = load i64, ptr %16, align 8
  %18 = trunc i64 %17 to i32
  tail call void @conditional_stack_set_query_len(ptr noundef %1, i32 noundef %18) #16
  br label %save_query_text_state.exit13

save_query_text_state.exit13:                     ; preds = %14, %15
  %19 = tail call i32 @psql_scan_get_paren_depth(ptr noundef %0) #16
  tail call void @conditional_stack_set_paren_depth(ptr noundef %1, i32 noundef %19) #16
  tail call fastcc void @ignore_boolean_expression(ptr noundef %0)
  br label %20

20:                                               ; preds = %save_query_text_state.exit, %12, %save_query_text_state.exit13
  ret void
}